; ModuleID = '3/1187.c'
source_filename = "3/1187.c"
target datalayout = "e-m:e-p270:32:32-p271:32:32-p272:64:64-i64:64-f80:128-n8:16:32:64-S128"
target triple = "x86_64-pc-linux-gnu"

@.str = private unnamed_addr constant [3 x i8] c"%d\00", align 1
@.str.1 = private unnamed_addr constant [3 x i8] c"no\00", align 1
@.str.2 = private unnamed_addr constant [4 x i8] c"yes\00", align 1

; Function Attrs: noinline nounwind uwtable
define dso_local i32 @main() #0 {
  %1 = alloca i32, align 4
  %2 = alloca i32, align 4
  %3 = alloca i32, align 4
  %4 = alloca i32, align 4
  %5 = alloca i32, align 4
  %6 = alloca i32, align 4
  %7 = alloca [2 x [1000 x i32]], align 16
  store i32 0, i32* %1, align 4
  store i32 0, i32* %6, align 4
  %8 = call i32 (i8*, ...) @__isoc99_scanf(i8* getelementptr inbounds ([3 x i8], [3 x i8]* @.str, i64 0, i64 0), i32* %4)
  %9 = call i32 (i8*, ...) @__isoc99_scanf(i8* getelementptr inbounds ([3 x i8], [3 x i8]* @.str, i64 0, i64 0), i32* %3)
  store i32 0, i32* %2, align 4
  br label %10

10:                                               ; preds = %31, %0
  %11 = load i32, i32* %2, align 4
  %12 = load i32, i32* %4, align 4
  %13 = icmp slt i32 %11, %12
  br i1 %13, label %14, label %34

14:                                               ; preds = %10
  %15 = getelementptr inbounds [2 x [1000 x i32]], [2 x [1000 x i32]]* %7, i64 0, i64 0
  %16 = load i32, i32* %2, align 4
  %17 = sext i32 %16 to i64
  %18 = getelementptr inbounds [1000 x i32], [1000 x i32]* %15, i64 0, i64 %17
  %19 = call i32 (i8*, ...) @__isoc99_scanf(i8* getelementptr inbounds ([3 x i8], [3 x i8]* @.str, i64 0, i64 0), i32* %18)
  %20 = load i32, i32* %3, align 4
  %21 = getelementptr inbounds [2 x [1000 x i32]], [2 x [1000 x i32]]* %7, i64 0, i64 0
  %22 = load i32, i32* %2, align 4
  %23 = sext i32 %22 to i64
  %24 = getelementptr inbounds [1000 x i32], [1000 x i32]* %21, i64 0, i64 %23
  %25 = load i32, i32* %24, align 4
  %26 = sub nsw i32 %20, %25
  %27 = getelementptr inbounds [2 x [1000 x i32]], [2 x [1000 x i32]]* %7, i64 0, i64 1
  %28 = load i32, i32* %2, align 4
  %29 = sext i32 %28 to i64
  %30 = getelementptr inbounds [1000 x i32], [1000 x i32]* %27, i64 0, i64 %29
  store i32 %26, i32* %30, align 4
  br label %31

31:                                               ; preds = %14
  %32 = load i32, i32* %2, align 4
  %33 = add nsw i32 %32, 1
  store i32 %33, i32* %2, align 4
  br label %10

34:                                               ; preds = %10
  store i32 0, i32* %2, align 4
  br label %35

35:                                               ; preds = %68, %34
  %36 = load i32, i32* %2, align 4
  %37 = load i32, i32* %4, align 4
  %38 = icmp slt i32 %36, %37
  br i1 %38, label %39, label %71

39:                                               ; preds = %35
  store i32 0, i32* %5, align 4
  br label %40

40:                                               ; preds = %64, %39
  %41 = load i32, i32* %5, align 4
  %42 = load i32, i32* %4, align 4
  %43 = icmp slt i32 %41, %42
  br i1 %43, label %44, label %67

44:                                               ; preds = %40
  %45 = getelementptr inbounds [2 x [1000 x i32]], [2 x [1000 x i32]]* %7, i64 0, i64 1
  %46 = load i32, i32* %2, align 4
  %47 = sext i32 %46 to i64
  %48 = getelementptr inbounds [1000 x i32], [1000 x i32]* %45, i64 0, i64 %47
  %49 = load i32, i32* %48, align 4
  %50 = getelementptr inbounds [2 x [1000 x i32]], [2 x [1000 x i32]]* %7, i64 0, i64 0
  %51 = load i32, i32* %5, align 4
  %52 = sext i32 %51 to i64
  %53 = getelementptr inbounds [1000 x i32], [1000 x i32]* %50, i64 0, i64 %52
  %54 = load i32, i32* %53, align 4
  %55 = icmp eq i32 %49, %54
  br i1 %55, label %56, label %63

56:                                               ; preds = %44
  %57 = load i32, i32* %2, align 4
  %58 = load i32, i32* %5, align 4
  %59 = icmp ne i32 %57, %58
  br i1 %59, label %60, label %63

60:                                               ; preds = %56
  %61 = load i32, i32* %6, align 4
  %62 = add nsw i32 %61, 1
  store i32 %62, i32* %6, align 4
  br label %63

63:                                               ; preds = %60, %56, %44
  br label %64

64:                                               ; preds = %63
  %65 = load i32, i32* %5, align 4
  %66 = add nsw i32 %65, 1
  store i32 %66, i32* %5, align 4
  br label %40

67:                                               ; preds = %40
  br label %68

68:                                               ; preds = %67
  %69 = load i32, i32* %2, align 4
  %70 = add nsw i32 %69, 1
  store i32 %70, i32* %2, align 4
  br label %35

71:                                               ; preds = %35
  %72 = load i32, i32* %6, align 4
  %73 = icmp eq i32 %72, 0
  br i1 %73, label %74, label %76

74:                                               ; preds = %71
  %75 = call i32 (i8*, ...) @printf(i8* getelementptr inbounds ([3 x i8], [3 x i8]* @.str.1, i64 0, i64 0))
  br label %76

76:                                               ; preds = %74, %71
  %77 = load i32, i32* %6, align 4
  %78 = icmp ne i32 %77, 0
  br i1 %78, label %79, label %81

79:                                               ; preds = %76
  %80 = call i32 (i8*, ...) @printf(i8* getelementptr inbounds ([4 x i8], [4 x i8]* @.str.2, i64 0, i64 0))
  br label %81

81:                                               ; preds = %79, %76
  ret i32 0
}

declare dso_local i32 @__isoc99_scanf(i8*, ...) #1

declare dso_local i32 @printf(i8*, ...) #1


!llvm.module.flags = !{!0}
!llvm.ident = !{!1}

!0 = !{i32 1, !"wchar_size", i32 4}
!1 = !{!"clang version 10.0.0-4ubuntu1 "}
